target datalayout = "e-m:e-p270:32:32-p271:32:32-p272:64:64-i64:64-i128:128-f80:128-n8:16:32:64-S128"
target triple = "x86_64-pc-linux-gnu"

%struct.__va_list_tag = type { i32, i32, ptr, ptr }

@lj_err_allmsg = hidden global ptr @.str, align 8

; Function Attrs: noinline noreturn nounwind uwtable
define hidden void @lj_err_callerv(ptr noundef %0, i32 noundef %1, ...) #6 {
  %3 = alloca ptr, align 8
  %4 = alloca i32, align 4
  %5 = alloca ptr, align 8
  %6 = alloca [1 x %struct.__va_list_tag], align 16
  store ptr %0, ptr %3, align 8, !tbaa !18
  store i32 %1, ptr %4, align 4, !tbaa !4
  call void @llvm.lifetime.start.p0(i64 8, ptr %5) #15
  call void @llvm.lifetime.start.p0(i64 24, ptr %6) #15
  %7 = getelementptr inbounds [1 x %struct.__va_list_tag], ptr %6, i64 0, i64 0
  call void @llvm.va_start.p0(ptr %7)
  %8 = load ptr, ptr %3, align 8, !tbaa !18
  %9 = load ptr, ptr @lj_err_allmsg, align 8, !tbaa !50
  %10 = load i32, ptr %4, align 4, !tbaa !4
  %11 = sext i32 %10 to i64
  %12 = getelementptr inbounds i8, ptr %9, i64 %11
  %13 = getelementptr inbounds [1 x %struct.__va_list_tag], ptr %6, i64 0, i64 0
  %14 = call ptr @lj_strfmt_pushvf(ptr noundef %8, ptr noundef %12, ptr noundef %13)
  store ptr %14, ptr %5, align 8, !tbaa !50
  %15 = getelementptr inbounds [1 x %struct.__va_list_tag], ptr %6, i64 0, i64 0
  call void @llvm.va_end.p0(ptr %15)
  %16 = load ptr, ptr %3, align 8, !tbaa !18
  %17 = load ptr, ptr %5, align 8, !tbaa !50
  call void @lj_err_callermsg(ptr noundef %16, ptr noundef %17) #18
  unreachable
}