; Function Attrs: noinline noreturn nounwind uwtable
define hidden void @lj_err_callerv(ptr noundef %0, i32 noundef %1, ...) local_unnamed_addr #5 {
  %3 = alloca [1 x %struct.__va_list_tag], align 16
  call void @llvm.lifetime.start.p0(i64 24, ptr nonnull %3) #15
  call void @llvm.va_start.p0(ptr nonnull %3)
  %4 = load ptr, ptr @lj_err_allmsg, align 8, !tbaa !36
  %5 = sext i32 %1 to i64
  %6 = getelementptr inbounds i8, ptr %4, i64 %5
  %7 = call ptr @lj_strfmt_pushvf(ptr noundef %0, ptr noundef %6, ptr noundef nonnull %3) #15
  call void @llvm.va_end.p0(ptr nonnull %3)
  call void @lj_err_callermsg(ptr noundef %0, ptr noundef %7) #19
  unreachable
}